target datalayout = "e-m:e-p270:32:32-p271:32:32-p272:64:64-i64:64-i128:128-f80:128-n8:16:32:64-S128"
target triple = "x86_64-pc-linux-gnu"

%struct.lstopo_shmem_header = type { i32, i32, i64, i64, i64 }

@stderr = external global ptr, align 8
@.str.10 = private unnamed_addr constant [38 x i8] c"Failed to read shmem topology header\0A\00", align 1
@.str.11 = private unnamed_addr constant [74 x i8] c"Unexpected shmem topology header version %u length %u (instead of %u %u)\0A\00", align 1
@.str.12 = private unnamed_addr constant [54 x i8] c"Failed to adopt shmem topology, memory range is busy\0A\00", align 1
@.str.13 = private unnamed_addr constant [37 x i8] c"Failed to adopt shmem topology (%s)\0A\00", align 1
@.str.14 = private unnamed_addr constant [49 x i8] c"Failed to duplicate adopted shmem topology (%s)\0A\00", align 1

; Function Attrs: nounwind uwtable
define hidden i32 @lstopo_shmem_adopt(ptr noundef %0, ptr noundef %1) #0 {
  %3 = alloca i32, align 4
  %4 = alloca ptr, align 8
  %5 = alloca ptr, align 8
  %6 = alloca ptr, align 8
  %7 = alloca %struct.lstopo_shmem_header, align 8
  %8 = alloca i32, align 4
  %9 = alloca i32, align 4
  %10 = alloca i32, align 4
  store ptr %0, ptr %4, align 8, !tbaa !9
  store ptr %1, ptr %5, align 8, !tbaa !35
  call void @llvm.lifetime.start.p0(i64 8, ptr %6) #6
  call void @llvm.lifetime.start.p0(i64 32, ptr %7) #6
  call void @llvm.lifetime.start.p0(i64 4, ptr %8) #6
  call void @llvm.lifetime.start.p0(i64 4, ptr %9) #6
  %11 = load ptr, ptr %4, align 8, !tbaa !9
  %12 = call i32 (ptr, i32, ...) @open(ptr noundef %11, i32 noundef 0)
  store i32 %12, ptr %8, align 4, !tbaa !25
  %13 = load i32, ptr %8, align 4, !tbaa !25
  %14 = icmp slt i32 %13, 0
  br i1 %14, label %15, label %16

15:                                               ; preds = %2
  store i32 -1, ptr %3, align 4
  store i32 1, ptr %10, align 4
  br label %87

16:                                               ; preds = %2
  %17 = load i32, ptr %8, align 4, !tbaa !25
  %18 = call i64 @read(i32 noundef %17, ptr noundef %7, i64 noundef 32)
  %19 = trunc i64 %18 to i32
  store i32 %19, ptr %9, align 4, !tbaa !25
  %20 = load i32, ptr %9, align 4, !tbaa !25
  %21 = icmp slt i32 %20, 32
  br i1 %21, label %22, label %27

22:                                               ; preds = %16
  %23 = load ptr, ptr @stderr, align 8, !tbaa !11
  %24 = call i32 (ptr, ptr, ...) @fprintf(ptr noundef %23, ptr noundef @.str.10) #6
  %25 = load i32, ptr %8, align 4, !tbaa !25
  %26 = call i32 @close(i32 noundef %25)
  store i32 -1, ptr %3, align 4
  store i32 1, ptr %10, align 4
  br label %87

27:                                               ; preds = %16
  %28 = getelementptr inbounds nuw %struct.lstopo_shmem_header, ptr %7, i32 0, i32 0
  %29 = load i32, ptr %28, align 8, !tbaa !28
  %30 = icmp ne i32 %29, 1
  br i1 %30, label %36, label %31

31:                                               ; preds = %27
  %32 = getelementptr inbounds nuw %struct.lstopo_shmem_header, ptr %7, i32 0, i32 1
  %33 = load i32, ptr %32, align 4, !tbaa !30
  %34 = zext i32 %33 to i64
  %35 = icmp ne i64 %34, 32
  br i1 %35, label %36, label %45

36:                                               ; preds = %31, %27
  %37 = load ptr, ptr @stderr, align 8, !tbaa !11
  %38 = getelementptr inbounds nuw %struct.lstopo_shmem_header, ptr %7, i32 0, i32 0
  %39 = load i32, ptr %38, align 8, !tbaa !28
  %40 = getelementptr inbounds nuw %struct.lstopo_shmem_header, ptr %7, i32 0, i32 1
  %41 = load i32, ptr %40, align 4, !tbaa !30
  %42 = call i32 (ptr, ptr, ...) @fprintf(ptr noundef %37, ptr noundef @.str.11, i32 noundef %39, i32 noundef %41, i32 noundef 1, i32 noundef 32) #6
  %43 = load i32, ptr %8, align 4, !tbaa !25
  %44 = call i32 @close(i32 noundef %43)
  store i32 -1, ptr %3, align 4
  store i32 1, ptr %10, align 4
  br label %87

45:                                               ; preds = %31
  %46 = load i32, ptr %8, align 4, !tbaa !25
  %47 = getelementptr inbounds nuw %struct.lstopo_shmem_header, ptr %7, i32 0, i32 4
  %48 = load i64, ptr %47, align 8, !tbaa !33
  %49 = getelementptr inbounds nuw %struct.lstopo_shmem_header, ptr %7, i32 0, i32 2
  %50 = load i64, ptr %49, align 8, !tbaa !31
  %51 = inttoptr i64 %50 to ptr
  %52 = getelementptr inbounds nuw %struct.lstopo_shmem_header, ptr %7, i32 0, i32 3
  %53 = load i64, ptr %52, align 8, !tbaa !32
  %54 = call i32 @hwloc_shmem_topology_adopt(ptr noundef %6, i32 noundef %46, i64 noundef %48, ptr noundef %51, i64 noundef %53, i64 noundef 0)
  store i32 %54, ptr %9, align 4, !tbaa !25
  %55 = load i32, ptr %8, align 4, !tbaa !25
  %56 = call i32 @close(i32 noundef %55)
  %57 = load i32, ptr %9, align 4, !tbaa !25
  %58 = icmp slt i32 %57, 0
  br i1 %58, label %59, label %73

59:                                               ; preds = %45
  %60 = call ptr @__errno_location() #8
  %61 = load i32, ptr %60, align 4, !tbaa !25
  %62 = icmp eq i32 %61, 16
  br i1 %62, label %63, label %66

63:                                               ; preds = %59
  %64 = load ptr, ptr @stderr, align 8, !tbaa !11
  %65 = call i32 (ptr, ptr, ...) @fprintf(ptr noundef %64, ptr noundef @.str.12) #6
  br label %72

66:                                               ; preds = %59
  %67 = load ptr, ptr @stderr, align 8, !tbaa !11
  %68 = call ptr @__errno_location() #8
  %69 = load i32, ptr %68, align 4, !tbaa !25
  %70 = call ptr @strerror(i32 noundef %69) #6
  %71 = call i32 (ptr, ptr, ...) @fprintf(ptr noundef %67, ptr noundef @.str.13, ptr noundef %70) #6
  br label %72

72:                                               ; preds = %66, %63
  store i32 -1, ptr %3, align 4
  store i32 1, ptr %10, align 4
  br label %87

73:                                               ; preds = %45
  %74 = load ptr, ptr %5, align 8, !tbaa !35
  %75 = load ptr, ptr %6, align 8, !tbaa !37
  %76 = call i32 @hwloc_topology_dup(ptr noundef %74, ptr noundef %75)
  store i32 %76, ptr %9, align 4, !tbaa !25
  %77 = load ptr, ptr %6, align 8, !tbaa !37
  call void @hwloc_topology_destroy(ptr noundef %77)
  %78 = load i32, ptr %9, align 4, !tbaa !25
  %79 = icmp slt i32 %78, 0
  br i1 %79, label %80, label %86

80:                                               ; preds = %73
  %81 = load ptr, ptr @stderr, align 8, !tbaa !11
  %82 = call ptr @__errno_location() #8
  %83 = load i32, ptr %82, align 4, !tbaa !25
  %84 = call ptr @strerror(i32 noundef %83) #6
  %85 = call i32 (ptr, ptr, ...) @fprintf(ptr noundef %81, ptr noundef @.str.14, ptr noundef %84) #6
  store i32 -1, ptr %3, align 4
  store i32 1, ptr %10, align 4
  br label %87

86:                                               ; preds = %73
  store i32 0, ptr %3, align 4
  store i32 1, ptr %10, align 4
  br label %87

87:                                               ; preds = %86, %80, %72, %36, %22, %15
  call void @llvm.lifetime.end.p0(i64 4, ptr %9) #6
  call void @llvm.lifetime.end.p0(i64 4, ptr %8) #6
  call void @llvm.lifetime.end.p0(i64 32, ptr %7) #6
  call void @llvm.lifetime.end.p0(i64 8, ptr %6) #6
  %88 = load i32, ptr %3, align 4
  ret i32 %88
}