; Function Attrs: nounwind uwtable
define hidden range(i32 -1, 1) i32 @lstopo_shmem_adopt(ptr noundef readonly captures(none) %0, ptr noundef %1) local_unnamed_addr #0 {
  %3 = alloca ptr, align 8
  %4 = alloca %struct.lstopo_shmem_header, align 8
  call void @llvm.lifetime.start.p0(i64 8, ptr nonnull %3) #9
  call void @llvm.lifetime.start.p0(i64 32, ptr nonnull %4) #9
  %5 = tail call i32 (ptr, i32, ...) @open(ptr noundef %0, i32 noundef 0) #9
  %6 = icmp slt i32 %5, 0
  br i1 %6, label %57, label %7

7:                                                ; preds = %2
  %8 = call i64 @read(i32 noundef %5, ptr noundef nonnull %4, i64 noundef 32) #9
  %9 = trunc i64 %8 to i32
  %10 = icmp slt i32 %9, 32
  br i1 %10, label %11, label %15

11:                                               ; preds = %7
  %12 = load ptr, ptr @stderr, align 8, !tbaa !4
  %13 = tail call i64 @fwrite(ptr nonnull @.str.10, i64 37, i64 1, ptr %12) #11
  %14 = tail call i32 @close(i32 noundef %5) #9
  br label %57

15:                                               ; preds = %7
  %16 = load i32, ptr %4, align 8, !tbaa !25
  %17 = icmp ne i32 %16, 1
  %18 = getelementptr inbounds nuw i8, ptr %4, i64 4
  %19 = load i32, ptr %18, align 4
  %20 = icmp ne i32 %19, 32
  %or.cond = select i1 %17, i1 true, i1 %20
  br i1 %or.cond, label %21, label %25

21:                                               ; preds = %15
  %22 = load ptr, ptr @stderr, align 8, !tbaa !4
  %23 = tail call i32 (ptr, ptr, ...) @fprintf(ptr noundef %22, ptr noundef nonnull @.str.11, i32 noundef %16, i32 noundef %19, i32 noundef 1, i32 noundef 32) #12
  %24 = tail call i32 @close(i32 noundef %5) #9
  br label %57

25:                                               ; preds = %15
  %26 = getelementptr inbounds nuw i8, ptr %4, i64 24
  %27 = load i64, ptr %26, align 8, !tbaa !30
  %28 = getelementptr inbounds nuw i8, ptr %4, i64 8
  %29 = load i64, ptr %28, align 8, !tbaa !28
  %30 = inttoptr i64 %29 to ptr
  %31 = getelementptr inbounds nuw i8, ptr %4, i64 16
  %32 = load i64, ptr %31, align 8, !tbaa !29
  %33 = call i32 @hwloc_shmem_topology_adopt(ptr noundef nonnull %3, i32 noundef %5, i64 noundef %27, ptr noundef %30, i64 noundef %32, i64 noundef 0) #9
  %34 = call i32 @close(i32 noundef %5) #9
  %35 = icmp slt i32 %33, 0
  br i1 %35, label %36, label %46

36:                                               ; preds = %25
  %37 = tail call ptr @__errno_location() #13
  %38 = load i32, ptr %37, align 4, !tbaa !22
  %39 = icmp eq i32 %38, 16
  %40 = load ptr, ptr @stderr, align 8, !tbaa !4
  br i1 %39, label %41, label %43

41:                                               ; preds = %36
  %42 = call i64 @fwrite(ptr nonnull @.str.12, i64 53, i64 1, ptr %40) #11
  br label %57

43:                                               ; preds = %36
  %44 = call ptr @strerror(i32 noundef %38) #9
  %45 = call i32 (ptr, ptr, ...) @fprintf(ptr noundef %40, ptr noundef nonnull @.str.13, ptr noundef %44) #12
  br label %57

46:                                               ; preds = %25
  %47 = load ptr, ptr %3, align 8, !tbaa !31
  %48 = call i32 @hwloc_topology_dup(ptr noundef %1, ptr noundef %47) #9
  %49 = load ptr, ptr %3, align 8, !tbaa !31
  call void @hwloc_topology_destroy(ptr noundef %49) #9
  %50 = icmp slt i32 %48, 0
  br i1 %50, label %51, label %57

51:                                               ; preds = %46
  %52 = load ptr, ptr @stderr, align 8, !tbaa !4
  %53 = tail call ptr @__errno_location() #13
  %54 = load i32, ptr %53, align 4, !tbaa !22
  %55 = call ptr @strerror(i32 noundef %54) #9
  %56 = call i32 (ptr, ptr, ...) @fprintf(ptr noundef %52, ptr noundef nonnull @.str.14, ptr noundef %55) #12
  br label %57

57:                                               ; preds = %46, %41, %43, %2, %51, %21, %11
  %.0 = phi i32 [ -1, %11 ], [ -1, %21 ], [ -1, %51 ], [ -1, %2 ], [ -1, %43 ], [ -1, %41 ], [ 0, %46 ]
  call void @llvm.lifetime.end.p0(i64 32, ptr nonnull %4) #9
  call void @llvm.lifetime.end.p0(i64 8, ptr nonnull %3) #9
  ret i32 %.0
}